; Function Attrs: mustprogress uwtable
define internal noundef float @_ZN5faiss12_GLOBAL__N_123GenericDistanceComputerclEl(ptr noundef nonnull readonly align 8 captures(none) dereferenceable(56) %0, i64 noundef %1) unnamed_addr #3 align 2 {
  %3 = getelementptr inbounds nuw i8, ptr %0, i64 16
  %4 = load ptr, ptr %3, align 8, !tbaa !49
  %5 = getelementptr inbounds nuw i8, ptr %0, i64 24
  %6 = load ptr, ptr %5, align 8, !tbaa !44
  %7 = load ptr, ptr %4, align 8, !tbaa !18
  %8 = getelementptr inbounds nuw i8, ptr %7, i64 80
  %9 = load ptr, ptr %8, align 8
  tail call void %9(ptr noundef nonnull align 8 dereferenceable(36) %4, i64 noundef %1, ptr noundef %6)
  %10 = getelementptr inbounds nuw i8, ptr %0, i64 48
  %11 = load ptr, ptr %10, align 8, !tbaa !48
  %12 = load ptr, ptr %5, align 8, !tbaa !44
  %13 = getelementptr inbounds nuw i8, ptr %0, i64 8
  %14 = load i64, ptr %13, align 8, !tbaa !37
  %15 = tail call noundef float @_ZN5faiss10fvec_L2sqrEPKfS1_m(ptr noundef %11, ptr noundef %12, i64 noundef %14)
  ret float %15
}